target datalayout = "e-m:e-p270:32:32-p271:32:32-p272:64:64-i64:64-i128:128-f80:128-n8:16:32:64-S128"
target triple = "x86_64-pc-linux-gnu"

%struct.arrowname_t = type { ptr, i32 }

@.str.6 = private unnamed_addr constant [36 x i8] c"Arrow type \22%s\22 unknown - ignoring\0A\00", align 1
@Arrowsynonyms = internal constant [2 x { ptr, i32, [4 x i8] }] [{ ptr, i32, [4 x i8] } { ptr @.str.7, i32 49, [4 x i8] zeroinitializer }, { ptr, i32, [4 x i8] } zeroinitializer], align 16

; Function Attrs: inlinehint nounwind uwtable
define internal zeroext i1 @startswith(ptr noundef %0, ptr noundef %1) #3 {
  %3 = alloca ptr, align 8
  %4 = alloca ptr, align 8
  store ptr %0, ptr %3, align 8, !tbaa !14
  store ptr %1, ptr %4, align 8, !tbaa !14
  %5 = load ptr, ptr %3, align 8, !tbaa !14
  %6 = load ptr, ptr %4, align 8, !tbaa !14
  %7 = load ptr, ptr %4, align 8, !tbaa !14
  %8 = call i64 @strlen(ptr noundef %7) #10
  %9 = call i32 @strncmp(ptr noundef %5, ptr noundef %6, i64 noundef %8) #10
  %10 = icmp eq i32 %9, 0
  ret i1 %10
}

; Function Attrs: nounwind uwtable
define internal ptr @arrow_match_name_frag(ptr noundef %0, ptr noundef %1, ptr noundef %2) #0 {
  %4 = alloca ptr, align 8
  %5 = alloca ptr, align 8
  %6 = alloca ptr, align 8
  %7 = alloca i64, align 8
  %8 = alloca ptr, align 8
  %9 = alloca ptr, align 8
  %10 = alloca i32, align 4
  store ptr %0, ptr %4, align 8, !tbaa !14
  store ptr %1, ptr %5, align 8, !tbaa !17
  store ptr %2, ptr %6, align 8, !tbaa !8
  call void @llvm.lifetime.start.p0(i64 8, ptr %7) #9
  store i64 0, ptr %7, align 8, !tbaa !50
  call void @llvm.lifetime.start.p0(i64 8, ptr %8) #9
  %11 = load ptr, ptr %4, align 8, !tbaa !14
  store ptr %11, ptr %8, align 8, !tbaa !14
  call void @llvm.lifetime.start.p0(i64 8, ptr %9) #9
  %12 = load ptr, ptr %5, align 8, !tbaa !17
  store ptr %12, ptr %9, align 8, !tbaa !17
  br label %13

13:                                               ; preds = %40, %3
  %14 = load ptr, ptr %9, align 8, !tbaa !17
  %15 = getelementptr inbounds nuw %struct.arrowname_t, ptr %14, i32 0, i32 0
  %16 = load ptr, ptr %15, align 8, !tbaa !114
  %17 = icmp ne ptr %16, null
  br i1 %17, label %19, label %18

18:                                               ; preds = %13
  store i32 2, ptr %10, align 4
  br label %43

19:                                               ; preds = %13
  %20 = load ptr, ptr %9, align 8, !tbaa !17
  %21 = getelementptr inbounds nuw %struct.arrowname_t, ptr %20, i32 0, i32 0
  %22 = load ptr, ptr %21, align 8, !tbaa !114
  %23 = call i64 @strlen(ptr noundef %22) #10
  store i64 %23, ptr %7, align 8, !tbaa !50
  %24 = load ptr, ptr %4, align 8, !tbaa !14
  %25 = load ptr, ptr %9, align 8, !tbaa !17
  %26 = getelementptr inbounds nuw %struct.arrowname_t, ptr %25, i32 0, i32 0
  %27 = load ptr, ptr %26, align 8, !tbaa !114
  %28 = call zeroext i1 @startswith(ptr noundef %24, ptr noundef %27)
  br i1 %28, label %29, label %39

29:                                               ; preds = %19
  %30 = load ptr, ptr %9, align 8, !tbaa !17
  %31 = getelementptr inbounds nuw %struct.arrowname_t, ptr %30, i32 0, i32 1
  %32 = load i32, ptr %31, align 8, !tbaa !116
  %33 = load ptr, ptr %6, align 8, !tbaa !8
  %34 = load i32, ptr %33, align 4, !tbaa !10
  %35 = or i32 %34, %32
  store i32 %35, ptr %33, align 4, !tbaa !10
  %36 = load i64, ptr %7, align 8, !tbaa !50
  %37 = load ptr, ptr %8, align 8, !tbaa !14
  %38 = getelementptr inbounds nuw i8, ptr %37, i64 %36
  store ptr %38, ptr %8, align 8, !tbaa !14
  store i32 2, ptr %10, align 4
  br label %43

39:                                               ; preds = %19
  br label %40

40:                                               ; preds = %39
  %41 = load ptr, ptr %9, align 8, !tbaa !17
  %42 = getelementptr inbounds nuw %struct.arrowname_t, ptr %41, i32 1
  store ptr %42, ptr %9, align 8, !tbaa !17
  br label %13, !llvm.loop !117

43:                                               ; preds = %29, %18
  call void @llvm.lifetime.end.p0(i64 8, ptr %9) #9
  br label %44

44:                                               ; preds = %43
  %45 = load ptr, ptr %8, align 8, !tbaa !14
  store i32 1, ptr %10, align 4
  call void @llvm.lifetime.end.p0(i64 8, ptr %8) #9
  call void @llvm.lifetime.end.p0(i64 8, ptr %7) #9
  ret ptr %45
}

; Function Attrs: nounwind uwtable
define internal ptr @arrow_match_shape(ptr noundef %0, ptr noundef %1) #0 {
  %3 = alloca ptr, align 8
  %4 = alloca ptr, align 8
  %5 = alloca ptr, align 8
  %6 = alloca ptr, align 8
  %7 = alloca i32, align 4
  store ptr %0, ptr %3, align 8, !tbaa !14
  store ptr %1, ptr %4, align 8, !tbaa !8
  call void @llvm.lifetime.start.p0(i64 8, ptr %5) #9
  call void @llvm.lifetime.start.p0(i64 8, ptr %6) #9
  call void @llvm.lifetime.start.p0(i64 4, ptr %7) #9
  store i32 0, ptr %7, align 4, !tbaa !10
  %8 = load ptr, ptr %3, align 8, !tbaa !14
  %9 = call ptr @arrow_match_name_frag(ptr noundef %8, ptr noundef @Arrowsynonyms, ptr noundef %7)
  store ptr %9, ptr %6, align 8, !tbaa !14
  %10 = load ptr, ptr %6, align 8, !tbaa !14
  %11 = load ptr, ptr %3, align 8, !tbaa !14
  %12 = icmp eq ptr %10, %11
  br i1 %12, label %13, label %25

13:                                               ; preds = %2
  br label %14

14:                                               ; preds = %18, %13
  %15 = load ptr, ptr %6, align 8, !tbaa !14
  store ptr %15, ptr %5, align 8, !tbaa !14
  %16 = load ptr, ptr %5, align 8, !tbaa !14
  %17 = call ptr @arrow_match_name_frag(ptr noundef %16, ptr noundef @Arrowmods, ptr noundef %7)
  store ptr %17, ptr %6, align 8, !tbaa !14
  br label %18

18:                                               ; preds = %14
  %19 = load ptr, ptr %5, align 8, !tbaa !14
  %20 = load ptr, ptr %6, align 8, !tbaa !14
  %21 = icmp ne ptr %19, %20
  br i1 %21, label %14, label %22, !llvm.loop !113

22:                                               ; preds = %18
  %23 = load ptr, ptr %6, align 8, !tbaa !14
  %24 = call ptr @arrow_match_name_frag(ptr noundef %23, ptr noundef @Arrownames, ptr noundef %7)
  store ptr %24, ptr %6, align 8, !tbaa !14
  br label %25

25:                                               ; preds = %22, %2
  %26 = load i32, ptr %7, align 4, !tbaa !10
  %27 = icmp ne i32 %26, 0
  br i1 %27, label %28, label %35

28:                                               ; preds = %25
  %29 = load i32, ptr %7, align 4, !tbaa !10
  %30 = and i32 %29, 15
  %31 = icmp ne i32 %30, 0
  br i1 %31, label %35, label %32

32:                                               ; preds = %28
  %33 = load i32, ptr %7, align 4, !tbaa !10
  %34 = or i32 %33, 1
  store i32 %34, ptr %7, align 4, !tbaa !10
  br label %35

35:                                               ; preds = %32, %28, %25
  %36 = load i32, ptr %7, align 4, !tbaa !10
  %37 = load ptr, ptr %4, align 8, !tbaa !8
  store i32 %36, ptr %37, align 4, !tbaa !10
  %38 = load ptr, ptr %6, align 8, !tbaa !14
  call void @llvm.lifetime.end.p0(i64 4, ptr %7) #9
  call void @llvm.lifetime.end.p0(i64 8, ptr %6) #9
  call void @llvm.lifetime.end.p0(i64 8, ptr %5) #9
  ret ptr %38
}

; Function Attrs: nounwind uwtable
define internal void @arrow_match_name(ptr noundef %0, ptr noundef %1) #0 {
  %3 = alloca ptr, align 8
  %4 = alloca ptr, align 8
  %5 = alloca ptr, align 8
  %6 = alloca ptr, align 8
  %7 = alloca i32, align 4
  %8 = alloca i32, align 4
  %9 = alloca i32, align 4
  store ptr %0, ptr %3, align 8, !tbaa !14
  store ptr %1, ptr %4, align 8, !tbaa !8
  call void @llvm.lifetime.start.p0(i64 8, ptr %5) #9
  %10 = load ptr, ptr %3, align 8, !tbaa !14
  store ptr %10, ptr %5, align 8, !tbaa !14
  call void @llvm.lifetime.start.p0(i64 8, ptr %6) #9
  call void @llvm.lifetime.start.p0(i64 4, ptr %7) #9
  %11 = load ptr, ptr %4, align 8, !tbaa !8
  store i32 0, ptr %11, align 4, !tbaa !10
  store i32 0, ptr %7, align 4, !tbaa !10
  br label %12

12:                                               ; preds = %64, %2
  %13 = load ptr, ptr %5, align 8, !tbaa !14
  %14 = load i8, ptr %13, align 1, !tbaa !16
  %15 = sext i8 %14 to i32
  %16 = icmp ne i32 %15, 0
  br i1 %16, label %17, label %20

17:                                               ; preds = %12
  %18 = load i32, ptr %7, align 4, !tbaa !10
  %19 = icmp slt i32 %18, 4
  br label %20

20:                                               ; preds = %17, %12
  %21 = phi i1 [ false, %12 ], [ %19, %17 ]
  br i1 %21, label %22, label %65

22:                                               ; preds = %20
  call void @llvm.lifetime.start.p0(i64 4, ptr %8) #9
  store i32 0, ptr %8, align 4, !tbaa !10
  %23 = load ptr, ptr %5, align 8, !tbaa !14
  store ptr %23, ptr %6, align 8, !tbaa !14
  %24 = load ptr, ptr %6, align 8, !tbaa !14
  %25 = call ptr @arrow_match_shape(ptr noundef %24, ptr noundef %8)
  store ptr %25, ptr %5, align 8, !tbaa !14
  %26 = load i32, ptr %8, align 4, !tbaa !10
  %27 = icmp eq i32 %26, 0
  br i1 %27, label %28, label %30

28:                                               ; preds = %22
  %29 = load ptr, ptr %6, align 8, !tbaa !14
  call void (ptr, ...) @agwarningf(ptr noundef @.str.6, ptr noundef %29)
  store i32 1, ptr %9, align 4
  br label %62

30:                                               ; preds = %22
  %31 = load i32, ptr %8, align 4, !tbaa !10
  %32 = icmp eq i32 %31, 8
  br i1 %32, label %33, label %37

33:                                               ; preds = %30
  %34 = load i32, ptr %7, align 4, !tbaa !10
  %35 = icmp eq i32 %34, 3
  br i1 %35, label %36, label %37

36:                                               ; preds = %33
  store i32 0, ptr %8, align 4, !tbaa !10
  br label %37

37:                                               ; preds = %36, %33, %30
  %38 = load i32, ptr %8, align 4, !tbaa !10
  %39 = icmp eq i32 %38, 8
  br i1 %39, label %40, label %49

40:                                               ; preds = %37
  %41 = load i32, ptr %7, align 4, !tbaa !10
  %42 = icmp eq i32 %41, 0
  br i1 %42, label %43, label %49

43:                                               ; preds = %40
  %44 = load ptr, ptr %5, align 8, !tbaa !14
  %45 = load i8, ptr %44, align 1, !tbaa !16
  %46 = sext i8 %45 to i32
  %47 = icmp eq i32 %46, 0
  br i1 %47, label %48, label %49

48:                                               ; preds = %43
  store i32 0, ptr %8, align 4, !tbaa !10
  br label %49

49:                                               ; preds = %48, %43, %40, %37
  %50 = load i32, ptr %8, align 4, !tbaa !10
  %51 = icmp ne i32 %50, 0
  br i1 %51, label %52, label %61

52:                                               ; preds = %49
  %53 = load i32, ptr %8, align 4, !tbaa !10
  %54 = load i32, ptr %7, align 4, !tbaa !10
  %55 = add nsw i32 %54, 1
  store i32 %55, ptr %7, align 4, !tbaa !10
  %56 = mul nsw i32 %54, 8
  %57 = shl i32 %53, %56
  %58 = load ptr, ptr %4, align 8, !tbaa !8
  %59 = load i32, ptr %58, align 4, !tbaa !10
  %60 = or i32 %59, %57
  store i32 %60, ptr %58, align 4, !tbaa !10
  br label %61

61:                                               ; preds = %52, %49
  store i32 0, ptr %9, align 4
  br label %62

62:                                               ; preds = %61, %28
  call void @llvm.lifetime.end.p0(i64 4, ptr %8) #9
  %63 = load i32, ptr %9, align 4
  switch i32 %63, label %66 [
    i32 0, label %64
  ]

64:                                               ; preds = %62
  br label %12, !llvm.loop !48

65:                                               ; preds = %20
  store i32 0, ptr %9, align 4
  br label %66

66:                                               ; preds = %65, %62
  call void @llvm.lifetime.end.p0(i64 4, ptr %7) #9
  call void @llvm.lifetime.end.p0(i64 8, ptr %6) #9
  call void @llvm.lifetime.end.p0(i64 8, ptr %5) #9
  %67 = load i32, ptr %9, align 4
  switch i32 %67, label %69 [
    i32 0, label %68
    i32 1, label %68
  ]

68:                                               ; preds = %66, %66
  ret void

69:                                               ; preds = %66
  unreachable
}