; Function Attrs: nounwind uwtable
define internal fastcc void @arrow_match_name(ptr noundef %0, ptr noundef writeonly captures(none) initializes((0, 4)) %1) unnamed_addr #0 {
  store i32 0, ptr %1, align 4, !tbaa !3
  %3 = load i8, ptr %0, align 1, !tbaa !10
  %.not = icmp eq i8 %3, 0
  br i1 %.not, label %.loopexit, label %.lr.ph

.lr.ph:                                           ; preds = %2, %.thread25
  %4 = phi i32 [ %47, %.thread25 ], [ 0, %2 ]
  %.01537 = phi i32 [ %.1, %.thread25 ], [ 0, %2 ]
  %.01636 = phi ptr [ %.0.i, %.thread25 ], [ %0, %2 ]
  %5 = tail call i32 @strncmp(ptr noundef nonnull readonly dereferenceable(1) %.01636, ptr noundef nonnull readonly dereferenceable(9) @.str.7, i64 noundef 8) #13
  %6 = icmp eq i32 %5, 0
  br i1 %6, label %arrow_match_name_frag.exit.i, label %.preheader.i

arrow_match_name_frag.exit.i:                     ; preds = %.lr.ph
  %7 = getelementptr inbounds nuw i8, ptr %.01636, i64 8
  br label %arrow_match_shape.exit

.preheader.i:                                     ; preds = %.lr.ph, %arrow_match_name_frag.exit20.i
  %.131.i = phi i32 [ %.4.i, %arrow_match_name_frag.exit20.i ], [ 0, %.lr.ph ]
  %.1.i = phi ptr [ %.011.i19.i, %arrow_match_name_frag.exit20.i ], [ %.01636, %.lr.ph ]
  br label %.lr.ph.i16.i

.lr.ph.i16.i:                                     ; preds = %17, %.preheader.i
  %8 = phi ptr [ %19, %17 ], [ @.str.9, %.preheader.i ]
  %.015.i17.i = phi ptr [ %18, %17 ], [ @Arrowmods, %.preheader.i ]
  %9 = tail call i64 @strlen(ptr noundef nonnull dereferenceable(1) %8) #13
  %10 = tail call i32 @strncmp(ptr noundef readonly %.1.i, ptr noundef nonnull readonly %8, i64 noundef %9) #13
  %11 = icmp eq i32 %10, 0
  br i1 %11, label %12, label %17

12:                                               ; preds = %.lr.ph.i16.i
  %13 = getelementptr inbounds nuw i8, ptr %.015.i17.i, i64 8
  %14 = load i32, ptr %13, align 8, !tbaa !43
  %15 = or i32 %14, %.131.i
  %16 = getelementptr inbounds nuw i8, ptr %.1.i, i64 %9
  br label %arrow_match_name_frag.exit20.i

17:                                               ; preds = %.lr.ph.i16.i
  %18 = getelementptr inbounds nuw i8, ptr %.015.i17.i, i64 16
  %19 = load ptr, ptr %18, align 8, !tbaa !45
  %.not.i18.i = icmp eq ptr %19, null
  br i1 %.not.i18.i, label %arrow_match_name_frag.exit20.i, label %.lr.ph.i16.i, !llvm.loop !46

arrow_match_name_frag.exit20.i:                   ; preds = %17, %12
  %.4.i = phi i32 [ %15, %12 ], [ %.131.i, %17 ]
  %.011.i19.i = phi ptr [ %16, %12 ], [ %.1.i, %17 ]
  %.not.i = icmp eq ptr %.1.i, %.011.i19.i
  br i1 %.not.i, label %.lr.ph.i21.i, label %.preheader.i, !llvm.loop !47

.lr.ph.i21.i:                                     ; preds = %arrow_match_name_frag.exit20.i, %29
  %20 = phi ptr [ %31, %29 ], [ @.str.15, %arrow_match_name_frag.exit20.i ]
  %.015.i22.i = phi ptr [ %30, %29 ], [ @Arrownames, %arrow_match_name_frag.exit20.i ]
  %21 = tail call i64 @strlen(ptr noundef nonnull dereferenceable(1) %20) #13
  %22 = tail call i32 @strncmp(ptr noundef readonly %.1.i, ptr noundef nonnull readonly %20, i64 noundef %21) #13
  %23 = icmp eq i32 %22, 0
  br i1 %23, label %24, label %29

24:                                               ; preds = %.lr.ph.i21.i
  %25 = getelementptr inbounds nuw i8, ptr %.015.i22.i, i64 8
  %26 = load i32, ptr %25, align 8, !tbaa !43
  %27 = or i32 %26, %.4.i
  %28 = getelementptr inbounds nuw i8, ptr %.1.i, i64 %21
  br label %arrow_match_shape.exit

29:                                               ; preds = %.lr.ph.i21.i
  %30 = getelementptr inbounds nuw i8, ptr %.015.i22.i, i64 16
  %31 = load ptr, ptr %30, align 8, !tbaa !45
  %.not.i23.i = icmp eq ptr %31, null
  br i1 %.not.i23.i, label %arrow_match_shape.exit, label %.lr.ph.i21.i, !llvm.loop !46

arrow_match_shape.exit:                           ; preds = %29, %arrow_match_name_frag.exit.i, %24
  %.030.i = phi i32 [ 49, %arrow_match_name_frag.exit.i ], [ %27, %24 ], [ %.4.i, %29 ]
  %.0.i = phi ptr [ %7, %arrow_match_name_frag.exit.i ], [ %28, %24 ], [ %.1.i, %29 ]
  %.not14.i = icmp ne i32 %.030.i, 0
  %32 = and i32 %.030.i, 15
  %.not15.i = icmp eq i32 %32, 0
  %or.cond.i = and i1 %.not14.i, %.not15.i
  %33 = zext i1 %or.cond.i to i32
  %spec.select.i = or disjoint i32 %.030.i, %33
  %.not19 = icmp eq i32 %spec.select.i, 0
  br i1 %.not19, label %.thread28, label %34

.thread28:                                        ; preds = %arrow_match_shape.exit
  tail call void (ptr, ...) @agwarningf(ptr noundef nonnull @.str.6, ptr noundef nonnull %.01636) #12
  br label %.loopexit

34:                                               ; preds = %arrow_match_shape.exit
  %35 = icmp eq i32 %spec.select.i, 8
  %36 = icmp eq i32 %.01537, 3
  %or.cond = select i1 %35, i1 %36, i1 false
  br i1 %or.cond, label %.thread25, label %37

37:                                               ; preds = %34
  %38 = icmp eq i32 %.01537, 0
  %or.cond3 = select i1 %35, i1 %38, i1 false
  br i1 %or.cond3, label %39, label %42

39:                                               ; preds = %37
  %40 = load i8, ptr %.0.i, align 1, !tbaa !10
  %41 = icmp eq i8 %40, 0
  br i1 %41, label %.thread25, label %42

42:                                               ; preds = %37, %39
  %43 = add nsw i32 %.01537, 1
  %44 = shl nsw i32 %.01537, 3
  %45 = shl i32 %spec.select.i, %44
  %46 = or i32 %4, %45
  store i32 %46, ptr %1, align 4, !tbaa !3
  br label %.thread25

.thread25:                                        ; preds = %39, %34, %42
  %47 = phi i32 [ %46, %42 ], [ %4, %34 ], [ %4, %39 ]
  %.1 = phi i32 [ %43, %42 ], [ 3, %34 ], [ 0, %39 ]
  %48 = load i8, ptr %.0.i, align 1, !tbaa !10
  %49 = icmp ne i8 %48, 0
  %50 = icmp slt i32 %.1, 4
  %51 = select i1 %49, i1 %50, i1 false
  br i1 %51, label %.lr.ph, label %.loopexit, !llvm.loop !48

.loopexit:                                        ; preds = %.thread25, %2, %.thread28
  ret void
}